target datalayout = "e-m:e-p270:32:32-p271:32:32-p272:64:64-i64:64-i128:128-f80:128-n8:16:32:64-S128"
target triple = "x86_64-unknown-linux-gnu"

%"class.icu_75::number::SimpleNumberFormatter" = type { i32, ptr, ptr, ptr }

; Function Attrs: mustprogress nounwind uwtable
define linkonce_odr void @_ZN6icu_756number21SimpleNumberFormatterC2Ev(ptr noundef nonnull align 8 dereferenceable(32) %this) unnamed_addr #0 comdat align 2 {
entry:
  %this.addr = alloca ptr, align 8
  store ptr %this, ptr %this.addr, align 8
  %this1 = load ptr, ptr %this.addr, align 8
  %fGroupingStrategy = getelementptr inbounds %"class.icu_75::number::SimpleNumberFormatter", ptr %this1, i32 0, i32 0
  store i32 2, ptr %fGroupingStrategy, align 8
  %fOwnedSymbols = getelementptr inbounds %"class.icu_75::number::SimpleNumberFormatter", ptr %this1, i32 0, i32 1
  store ptr null, ptr %fOwnedSymbols, align 8
  %fMicros = getelementptr inbounds %"class.icu_75::number::SimpleNumberFormatter", ptr %this1, i32 0, i32 2
  store ptr null, ptr %fMicros, align 8
  %fPatternModifier = getelementptr inbounds %"class.icu_75::number::SimpleNumberFormatter", ptr %this1, i32 0, i32 3
  store ptr null, ptr %fPatternModifier, align 8
  ret void
}

; Function Attrs: mustprogress uwtable
define void @_ZN6icu_756number21SimpleNumberFormatter38forLocaleAndSymbolsAndGroupingStrategyERKNS_6LocaleERKNS_20DecimalFormatSymbolsE23UNumberGroupingStrategyR10UErrorCode(ptr noalias sret(%"class.icu_75::number::SimpleNumberFormatter") align 8 %agg.result, ptr noundef nonnull align 8 dereferenceable(217) %locale, ptr noundef nonnull align 8 dereferenceable(2883) %symbols, i32 noundef %groupingStrategy, ptr noundef nonnull align 4 dereferenceable(4) %status) #1 align 2 personality ptr @__gxx_personality_v0 {
entry:
  %result.ptr = alloca ptr, align 8
  %locale.addr = alloca ptr, align 8
  %symbols.addr = alloca ptr, align 8
  %groupingStrategy.addr = alloca i32, align 4
  %status.addr = alloca ptr, align 8
  %nrvo = alloca i1, align 1
  %exn.slot = alloca ptr, align 8
  %ehselector.slot = alloca i32, align 4
  store ptr %agg.result, ptr %result.ptr, align 8
  store ptr %locale, ptr %locale.addr, align 8
  store ptr %symbols, ptr %symbols.addr, align 8
  store i32 %groupingStrategy, ptr %groupingStrategy.addr, align 4
  store ptr %status, ptr %status.addr, align 8
  store i1 false, ptr %nrvo, align 1
  call void @_ZN6icu_756number21SimpleNumberFormatterC2Ev(ptr noundef nonnull align 8 dereferenceable(32) %agg.result) #9
  %0 = load ptr, ptr %locale.addr, align 8
  %1 = load ptr, ptr %symbols.addr, align 8
  %2 = load i32, ptr %groupingStrategy.addr, align 4
  %3 = load ptr, ptr %status.addr, align 8
  invoke void @_ZN6icu_756number21SimpleNumberFormatter10initializeERKNS_6LocaleERKNS_20DecimalFormatSymbolsE23UNumberGroupingStrategyR10UErrorCode(ptr noundef nonnull align 8 dereferenceable(32) %agg.result, ptr noundef nonnull align 8 dereferenceable(217) %0, ptr noundef nonnull align 8 dereferenceable(2883) %1, i32 noundef %2, ptr noundef nonnull align 4 dereferenceable(4) %3)
          to label %invoke.cont unwind label %lpad

invoke.cont:                                      ; preds = %entry
  store i1 true, ptr %nrvo, align 1
  %nrvo.val = load i1, ptr %nrvo, align 1
  br i1 %nrvo.val, label %nrvo.skipdtor, label %nrvo.unused

lpad:                                             ; preds = %entry
  %4 = landingpad { ptr, i32 }
          cleanup
  %5 = extractvalue { ptr, i32 } %4, 0
  store ptr %5, ptr %exn.slot, align 8
  %6 = extractvalue { ptr, i32 } %4, 1
  store i32 %6, ptr %ehselector.slot, align 4
  call void @_ZN6icu_756number21SimpleNumberFormatterD2Ev(ptr noundef nonnull align 8 dereferenceable(32) %agg.result) #9
  br label %eh.resume

nrvo.unused:                                      ; preds = %invoke.cont
  call void @_ZN6icu_756number21SimpleNumberFormatterD2Ev(ptr noundef nonnull align 8 dereferenceable(32) %agg.result) #9
  br label %nrvo.skipdtor

nrvo.skipdtor:                                    ; preds = %nrvo.unused, %invoke.cont
  ret void

eh.resume:                                        ; preds = %lpad
  %exn = load ptr, ptr %exn.slot, align 8
  %sel = load i32, ptr %ehselector.slot, align 4
  %lpad.val = insertvalue { ptr, i32 } poison, ptr %exn, 0
  %lpad.val1 = insertvalue { ptr, i32 } %lpad.val, i32 %sel, 1
  resume { ptr, i32 } %lpad.val1
}