; Function Attrs: mustprogress uwtable
define void @_ZN6icu_756number21SimpleNumberFormatter38forLocaleAndSymbolsAndGroupingStrategyERKNS_6LocaleERKNS_20DecimalFormatSymbolsE23UNumberGroupingStrategyR10UErrorCode(ptr noalias nonnull sret(%"class.icu_75::number::SimpleNumberFormatter") align 8 %agg.result, ptr noundef nonnull align 8 dereferenceable(217) %locale, ptr noundef nonnull align 8 dereferenceable(2883) %symbols, i32 noundef %groupingStrategy, ptr noundef nonnull align 4 dereferenceable(4) %status) local_unnamed_addr #1 align 2 personality ptr @__gxx_personality_v0 {
entry:
  store i32 2, ptr %agg.result, align 8
  %fOwnedSymbols.i = getelementptr inbounds i8, ptr %agg.result, i64 8
  tail call void @llvm.memset.p0.i64(ptr noundef nonnull align 8 dereferenceable(24) %fOwnedSymbols.i, i8 0, i64 24, i1 false)
  invoke void @_ZN6icu_756number21SimpleNumberFormatter10initializeERKNS_6LocaleERKNS_20DecimalFormatSymbolsE23UNumberGroupingStrategyR10UErrorCode(ptr noundef nonnull align 8 dereferenceable(32) %agg.result, ptr noundef nonnull align 8 dereferenceable(217) %locale, ptr noundef nonnull align 8 dereferenceable(2883) %symbols, i32 noundef %groupingStrategy, ptr noundef nonnull align 4 dereferenceable(4) %status)
          to label %nrvo.skipdtor unwind label %lpad

lpad:                                             ; preds = %entry
  %0 = landingpad { ptr, i32 }
          cleanup
  tail call void @_ZN6icu_756number21SimpleNumberFormatterD2Ev(ptr noundef nonnull align 8 dereferenceable(32) %agg.result) #11
  resume { ptr, i32 } %0

nrvo.skipdtor:                                    ; preds = %entry
  ret void
}